; Function Attrs: nounwind uwtable
define noundef ptr @zend_ast_create_list_0(i16 noundef zeroext %0) local_unnamed_addr #0 {
  %2 = load ptr, ptr getelementptr inbounds (%struct._zend_compiler_globals, ptr @compiler_globals, i64 0, i32 32), align 8
  %3 = load ptr, ptr %2, align 8
  %4 = getelementptr inbounds i8, ptr %2, i64 8
  %5 = load ptr, ptr %4, align 8
  %6 = ptrtoint ptr %5 to i64
  %7 = ptrtoint ptr %3 to i64
  %8 = sub i64 %6, %7
  %.not.i = icmp ult i64 %8, 48
  br i1 %.not.i, label %11, label %9

9:                                                ; preds = %1
  %10 = getelementptr inbounds i8, ptr %3, i64 48
  store ptr %10, ptr %2, align 8
  br label %zend_ast_alloc.exit

11:                                               ; preds = %1
  %12 = ptrtoint ptr %2 to i64
  %13 = sub i64 %6, %12
  %..i = tail call i64 @llvm.umax.i64(i64 %13, i64 72)
  %14 = tail call noalias ptr @_emalloc(i64 noundef %..i) #13
  %15 = getelementptr inbounds i8, ptr %14, i64 24
  %16 = getelementptr inbounds i8, ptr %14, i64 72
  store ptr %16, ptr %14, align 8
  %17 = getelementptr inbounds i8, ptr %14, i64 %..i
  %18 = getelementptr inbounds i8, ptr %14, i64 8
  store ptr %17, ptr %18, align 8
  %19 = getelementptr inbounds i8, ptr %14, i64 16
  store ptr %2, ptr %19, align 8
  store ptr %14, ptr getelementptr inbounds (%struct._zend_compiler_globals, ptr @compiler_globals, i64 0, i32 32), align 8
  br label %zend_ast_alloc.exit

zend_ast_alloc.exit:                              ; preds = %9, %11
  %.0.i = phi ptr [ %3, %9 ], [ %15, %11 ]
  store i16 %0, ptr %.0.i, align 8
  %20 = getelementptr inbounds i8, ptr %.0.i, i64 2
  store i16 0, ptr %20, align 2
  %21 = load i32, ptr getelementptr inbounds (%struct._zend_compiler_globals, ptr @compiler_globals, i64 0, i32 3), align 8
  %22 = getelementptr inbounds i8, ptr %.0.i, i64 4
  store i32 %21, ptr %22, align 4
  %23 = getelementptr inbounds i8, ptr %.0.i, i64 8
  store i32 0, ptr %23, align 8
  ret ptr %.0.i
}